	.file	"args.c"
	.text
	.globl	show
	.type	show, @function
show:
.LFB0:
	.cfi_startproc
	endbr64
	pushq	%rbp
	.cfi_def_cfa_offset 16
	.cfi_offset 6, -16
	movq	%rsp, %rbp
	.cfi_def_cfa_register 6
	subq	$88, %rsp
	movl	%edi, -196(%rbp)
	movq	%rsi, -168(%rbp)
	movq	%rdx, -160(%rbp)
	movq	%rcx, -152(%rbp)
	movq	%r8, -144(%rbp)
	movq	%r9, -136(%rbp)
	testb	%al, %al
	je	.L5
	movaps	%xmm0, -128(%rbp)
	movaps	%xmm1, -112(%rbp)
	movaps	%xmm2, -96(%rbp)
	movaps	%xmm3, -80(%rbp)
	movaps	%xmm4, -64(%rbp)
	movaps	%xmm5, -48(%rbp)
	movaps	%xmm6, -32(%rbp)
	movaps	%xmm7, -16(%rbp)
.L5:
	leaq	-196(%rbp), %rax
	addq	$4, %rax
	movq	%rax, -184(%rbp)
	jmp	.L3
.L4:
	addq	$4, -184(%rbp)
	movq	-184(%rbp), %rax
	movl	-4(%rax), %eax
	movl	%eax, -188(%rbp)
.L3:
	movl	-196(%rbp), %eax
	leal	-1(%rax), %edx
	movl	%edx, -196(%rbp)
	testl	%eax, %eax
	jne	.L4
	movq	$0, -184(%rbp)
	nop
	leave
	.cfi_def_cfa 7, 8
	ret
	.cfi_endproc
.LFE0:
	.size	show, .-show
	.globl	main
	.type	main, @function
main:
.LFB1:
	.cfi_startproc
	endbr64
	pushq	%rbp
	.cfi_def_cfa_offset 16
	.cfi_offset 6, -16
	movq	%rsp, %rbp
	.cfi_def_cfa_register 6
	movl	$4, %r8d
	movl	$3, %ecx
	movl	$2, %edx
	movl	$1, %esi
	movl	$4, %edi
	movl	$0, %eax
	call	show
	movl	$0, %eax
	popq	%rbp
	.cfi_def_cfa 7, 8
	ret
	.cfi_endproc
.LFE1:
	.size	main, .-main
	.ident	"GCC: (Ubuntu 11.4.0-1ubuntu1~22.04) 11.4.0"
	.section	.note.GNU-stack,"",@progbits
	.section	.note.gnu.property,"a"
	.align 8
	.long	1f - 0f
	.long	4f - 1f
	.long	5
0:
	.string	"GNU"
1:
	.align 8
	.long	0xc0000002
	.long	3f - 2f
2:
	.long	0x3
3:
	.align 8
4:
